; Function Attrs: mustprogress nounwind uwtable
define hidden noundef ptr @_ZN10VM_Version16cpu_brand_stringEv() local_unnamed_addr #1 align 2 {
  %1 = load ptr, ptr @_ZL17_cpu_brand_string, align 8
  %2 = icmp eq ptr %1, null
  br i1 %2, label %3, label %31

3:                                                ; preds = %0
  %4 = tail call noundef ptr @_Z12AllocateHeapm8MEMFLAGSN17AllocFailStrategy13AllocFailEnumE(i64 noundef 49, i8 noundef zeroext 9, i32 noundef 1) #14
  store ptr %4, ptr @_ZL17_cpu_brand_string, align 8
  %5 = icmp eq ptr %4, null
  br i1 %5, label %31, label %6

6:                                                ; preds = %3
  %7 = load ptr, ptr @_ZL24getCPUIDBrandString_stub, align 8
  tail call void %7(ptr noundef nonnull @_ZN10VM_Version11_cpuid_infoE) #14
  %8 = load i32, ptr getelementptr inbounds (i8, ptr @_ZN10VM_Version11_cpuid_infoE, i64 152), align 8
  store i32 %8, ptr %4, align 4
  %9 = load i32, ptr getelementptr inbounds (i8, ptr @_ZN10VM_Version11_cpuid_infoE, i64 156), align 4
  %10 = getelementptr inbounds i8, ptr %4, i64 4
  store i32 %9, ptr %10, align 4
  %11 = load i32, ptr getelementptr inbounds (i8, ptr @_ZN10VM_Version11_cpuid_infoE, i64 160), align 8
  %12 = getelementptr inbounds i8, ptr %4, i64 8
  store i32 %11, ptr %12, align 4
  %13 = load i32, ptr getelementptr inbounds (i8, ptr @_ZN10VM_Version11_cpuid_infoE, i64 164), align 4
  %14 = getelementptr inbounds i8, ptr %4, i64 12
  store i32 %13, ptr %14, align 4
  %15 = load i32, ptr getelementptr inbounds (i8, ptr @_ZN10VM_Version11_cpuid_infoE, i64 168), align 8
  %16 = getelementptr inbounds i8, ptr %4, i64 16
  store i32 %15, ptr %16, align 4
  %17 = load i32, ptr getelementptr inbounds (i8, ptr @_ZN10VM_Version11_cpuid_infoE, i64 172), align 4
  %18 = getelementptr inbounds i8, ptr %4, i64 20
  store i32 %17, ptr %18, align 4
  %19 = load i32, ptr getelementptr inbounds (i8, ptr @_ZN10VM_Version11_cpuid_infoE, i64 176), align 8
  %20 = getelementptr inbounds i8, ptr %4, i64 24
  store i32 %19, ptr %20, align 4
  %21 = load i32, ptr getelementptr inbounds (i8, ptr @_ZN10VM_Version11_cpuid_infoE, i64 180), align 4
  %22 = getelementptr inbounds i8, ptr %4, i64 28
  store i32 %21, ptr %22, align 4
  %23 = load i32, ptr getelementptr inbounds (i8, ptr @_ZN10VM_Version11_cpuid_infoE, i64 184), align 8
  %24 = getelementptr inbounds i8, ptr %4, i64 32
  store i32 %23, ptr %24, align 4
  %25 = load i32, ptr getelementptr inbounds (i8, ptr @_ZN10VM_Version11_cpuid_infoE, i64 188), align 4
  %26 = getelementptr inbounds i8, ptr %4, i64 36
  store i32 %25, ptr %26, align 4
  %27 = load i32, ptr getelementptr inbounds (i8, ptr @_ZN10VM_Version11_cpuid_infoE, i64 192), align 8
  %28 = getelementptr inbounds i8, ptr %4, i64 40
  store i32 %27, ptr %28, align 4
  %29 = load i32, ptr getelementptr inbounds (i8, ptr @_ZN10VM_Version11_cpuid_infoE, i64 196), align 4
  %30 = getelementptr inbounds i8, ptr %4, i64 44
  store i32 %29, ptr %30, align 4
  %.pre = load ptr, ptr @_ZL17_cpu_brand_string, align 8
  br label %31

31:                                               ; preds = %0, %6, %3
  %.0 = phi ptr [ null, %3 ], [ %.pre, %6 ], [ %1, %0 ]
  ret ptr %.0
}